target datalayout = "e-m:e-p270:32:32-p271:32:32-p272:64:64-i64:64-i128:128-f80:128-n8:16:32:64-S128"
target triple = "x86_64-pc-linux-gnu"

%struct.tvbuff = type { ptr, ptr, i8, i32, ptr, ptr, i32, i32, i32, i32 }

@.str = private unnamed_addr constant [29 x i8] c"%s:%u: failed assertion \22%s\22\00", align 1
@.str.1 = private unnamed_addr constant [14 x i8] c"epan/tvbuff.c\00", align 1
@.str.5 = private unnamed_addr constant [24 x i8] c"tvb && tvb->initialized\00", align 1
@.str.34 = private unnamed_addr constant [12 x i8] c"length <= 8\00", align 1

; Function Attrs: inlinehint null_pointer_is_valid sspstrong uwtable
define internal ptr @fast_ensure_contiguous(ptr noundef %0, i32 noundef %1, i32 noundef %2) #5 {
  %4 = alloca ptr, align 8
  %5 = alloca ptr, align 8
  %6 = alloca i32, align 4
  %7 = alloca i32, align 4
  %8 = alloca i32, align 4
  %9 = alloca i32, align 4
  %10 = alloca i32, align 4
  %11 = alloca i32, align 4
  %12 = alloca i32, align 4
  store ptr %0, ptr %5, align 8
  store i32 %1, ptr %6, align 4
  store i32 %2, ptr %7, align 4
  call void @llvm.lifetime.start.p0(i64 4, ptr %8) #16
  call void @llvm.lifetime.start.p0(i64 4, ptr %9) #16
  %13 = load ptr, ptr %5, align 8
  %14 = icmp ne ptr %13, null
  br i1 %14, label %15, label %21

15:                                               ; preds = %3
  %16 = load ptr, ptr %5, align 8
  %17 = getelementptr inbounds nuw %struct.tvbuff, ptr %16, i32 0, i32 2
  %18 = load i8, ptr %17, align 8, !range !9, !noundef !10
  %19 = trunc i8 %18 to i1
  br i1 %19, label %20, label %21

20:                                               ; preds = %15
  br label %23

21:                                               ; preds = %15, %3
  call void (ptr, ...) @proto_report_dissector_bug(ptr noundef @.str, ptr noundef @.str.1, i32 noundef 893, ptr noundef @.str.5) #18
  unreachable

22:                                               ; No predecessors!
  br label %23

23:                                               ; preds = %22, %20
  %24 = load i32, ptr %7, align 4
  %25 = icmp ule i32 %24, 8
  br i1 %25, label %26, label %27

26:                                               ; preds = %23
  br label %29

27:                                               ; preds = %23
  call void (ptr, ...) @proto_report_dissector_bug(ptr noundef @.str, ptr noundef @.str.1, i32 noundef 895, ptr noundef @.str.34) #18
  unreachable

28:                                               ; No predecessors!
  br label %29

29:                                               ; preds = %28, %26
  %30 = load i32, ptr %6, align 4
  %31 = icmp slt i32 %30, 0
  br i1 %31, label %37, label %32

32:                                               ; preds = %29
  %33 = load ptr, ptr %5, align 8
  %34 = getelementptr inbounds nuw %struct.tvbuff, ptr %33, i32 0, i32 5
  %35 = load ptr, ptr %34, align 8
  %36 = icmp ne ptr %35, null
  br i1 %36, label %42, label %37

37:                                               ; preds = %32, %29
  %38 = load ptr, ptr %5, align 8
  %39 = load i32, ptr %6, align 4
  %40 = load i32, ptr %7, align 4
  %41 = call ptr @ensure_contiguous(ptr noundef %38, i32 noundef %39, i32 noundef %40)
  store ptr %41, ptr %4, align 8
  store i32 1, ptr %10, align 4
  br label %89

42:                                               ; preds = %32
  %43 = load i32, ptr %6, align 4
  store i32 %43, ptr %9, align 4
  %44 = load i32, ptr %9, align 4
  %45 = load i32, ptr %7, align 4
  %46 = add i32 %44, %45
  store i32 %46, ptr %8, align 4
  call void @llvm.lifetime.start.p0(i64 4, ptr %11) #16
  %47 = load i32, ptr %8, align 4
  %48 = load ptr, ptr %5, align 8
  %49 = getelementptr inbounds nuw %struct.tvbuff, ptr %48, i32 0, i32 6
  %50 = load i32, ptr %49, align 8
  %51 = icmp ule i32 %47, %50
  br i1 %51, label %52, label %53

52:                                               ; preds = %42
  store i32 1, ptr %11, align 4
  br label %54

53:                                               ; preds = %42
  store i32 0, ptr %11, align 4
  br label %54

54:                                               ; preds = %53, %52
  %55 = load i32, ptr %11, align 4
  store i32 %55, ptr %12, align 4
  call void @llvm.lifetime.end.p0(i64 4, ptr %11) #16
  %56 = load i32, ptr %12, align 4
  %57 = sext i32 %56 to i64
  %58 = call i64 @llvm.expect.i64(i64 %57, i64 1)
  %59 = icmp ne i64 %58, 0
  br i1 %59, label %60, label %67

60:                                               ; preds = %54
  %61 = load ptr, ptr %5, align 8
  %62 = getelementptr inbounds nuw %struct.tvbuff, ptr %61, i32 0, i32 5
  %63 = load ptr, ptr %62, align 8
  %64 = load i32, ptr %9, align 4
  %65 = zext i32 %64 to i64
  %66 = getelementptr i8, ptr %63, i64 %65
  store ptr %66, ptr %4, align 8
  store i32 1, ptr %10, align 4
  br label %89

67:                                               ; preds = %54
  %68 = load i32, ptr %8, align 4
  %69 = load ptr, ptr %5, align 8
  %70 = getelementptr inbounds nuw %struct.tvbuff, ptr %69, i32 0, i32 8
  %71 = load i32, ptr %70, align 8
  %72 = icmp ule i32 %68, %71
  br i1 %72, label %73, label %74

73:                                               ; preds = %67
  call void @except_throw(i64 noundef 1, i64 noundef 1, ptr noundef null) #18
  unreachable

74:                                               ; preds = %67
  %75 = load ptr, ptr %5, align 8
  %76 = getelementptr inbounds nuw %struct.tvbuff, ptr %75, i32 0, i32 3
  %77 = load i32, ptr %76, align 4
  %78 = and i32 %77, 1
  %79 = icmp ne i32 %78, 0
  br i1 %79, label %80, label %81

80:                                               ; preds = %74
  call void @except_throw(i64 noundef 1, i64 noundef 4, ptr noundef null) #18
  unreachable

81:                                               ; preds = %74
  %82 = load i32, ptr %8, align 4
  %83 = load ptr, ptr %5, align 8
  %84 = getelementptr inbounds nuw %struct.tvbuff, ptr %83, i32 0, i32 7
  %85 = load i32, ptr %84, align 4
  %86 = icmp ule i32 %82, %85
  br i1 %86, label %87, label %88

87:                                               ; preds = %81
  call void @except_throw(i64 noundef 1, i64 noundef 2, ptr noundef null) #18
  unreachable

88:                                               ; preds = %81
  call void @except_throw(i64 noundef 1, i64 noundef 3, ptr noundef null) #18
  unreachable

89:                                               ; preds = %60, %37
  call void @llvm.lifetime.end.p0(i64 4, ptr %9) #16
  call void @llvm.lifetime.end.p0(i64 4, ptr %8) #16
  %90 = load ptr, ptr %4, align 8
  ret ptr %90
}