; Function Attrs: inlinehint null_pointer_is_valid sspstrong uwtable
define internal fastcc ptr @fast_ensure_contiguous(ptr noundef %0, i32 noundef %1, i32 noundef range(i32 1, 9) %2) unnamed_addr #5 {
  %.not = icmp eq ptr %0, null
  br i1 %.not, label %8, label %4

4:                                                ; preds = %3
  %5 = getelementptr inbounds nuw i8, ptr %0, i64 16
  %6 = load i8, ptr %5, align 8, !range !9, !noundef !10
  %7 = trunc nuw i8 %6 to i1
  br i1 %7, label %9, label %8

8:                                                ; preds = %4, %3
  tail call void (ptr, ...) @proto_report_dissector_bug(ptr noundef nonnull @.str, ptr noundef nonnull @.str.1, i32 noundef 893, ptr noundef nonnull @.str.5) #18
  unreachable

9:                                                ; preds = %4
  %10 = icmp slt i32 %1, 0
  br i1 %10, label %14, label %11

11:                                               ; preds = %9
  %12 = getelementptr inbounds nuw i8, ptr %0, i64 32
  %13 = load ptr, ptr %12, align 8
  %.not27 = icmp eq ptr %13, null
  br i1 %.not27, label %14, label %16

14:                                               ; preds = %11, %9
  %15 = tail call fastcc ptr @ensure_contiguous(ptr noundef nonnull %0, i32 noundef %1, i32 noundef %2)
  br label %37

16:                                               ; preds = %11
  %17 = add nuw i32 %2, %1
  %18 = getelementptr inbounds nuw i8, ptr %0, i64 40
  %19 = load i32, ptr %18, align 8
  %.not28 = icmp ugt i32 %17, %19
  br i1 %.not28, label %23, label %20, !prof !11

20:                                               ; preds = %16
  %21 = zext nneg i32 %1 to i64
  %22 = getelementptr i8, ptr %13, i64 %21
  br label %37

23:                                               ; preds = %16
  %24 = getelementptr inbounds nuw i8, ptr %0, i64 48
  %25 = load i32, ptr %24, align 8
  %.not30 = icmp ugt i32 %17, %25
  br i1 %.not30, label %27, label %26

26:                                               ; preds = %23
  tail call void @except_throw(i64 noundef 1, i64 noundef 1, ptr noundef null) #18
  unreachable

27:                                               ; preds = %23
  %28 = getelementptr inbounds nuw i8, ptr %0, i64 20
  %29 = load i32, ptr %28, align 4
  %30 = and i32 %29, 1
  %.not31 = icmp eq i32 %30, 0
  br i1 %.not31, label %32, label %31

31:                                               ; preds = %27
  tail call void @except_throw(i64 noundef 1, i64 noundef 4, ptr noundef null) #18
  unreachable

32:                                               ; preds = %27
  %33 = getelementptr inbounds nuw i8, ptr %0, i64 44
  %34 = load i32, ptr %33, align 4
  %.not32 = icmp ugt i32 %17, %34
  br i1 %.not32, label %36, label %35

35:                                               ; preds = %32
  tail call void @except_throw(i64 noundef 1, i64 noundef 2, ptr noundef null) #18
  unreachable

36:                                               ; preds = %32
  tail call void @except_throw(i64 noundef 1, i64 noundef 3, ptr noundef null) #18
  unreachable

37:                                               ; preds = %20, %14
  %.0 = phi ptr [ %15, %14 ], [ %22, %20 ]
  ret ptr %.0
}